
testicg.elf:     file format elf64-littleriscv


Disassembly of section .text:

0000000080000000 <__text_start>:
    80000000:	30047073          	csrci	mstatus,8
    80000004:	00008117          	auipc	sp,0x8
    80000008:	52c10113          	addi	sp,sp,1324 # 80008530 <_stack_top>
    8000000c:	00001197          	auipc	gp,0x1
    80000010:	d2418193          	addi	gp,gp,-732 # 80000d30 <__global_pointer$>
    80000014:	00000517          	auipc	a0,0x0
    80000018:	51c50513          	addi	a0,a0,1308 # 80000530 <__bss_end>
    8000001c:	00000597          	auipc	a1,0x0
    80000020:	51458593          	addi	a1,a1,1300 # 80000530 <__bss_end>
    80000024:	00b57863          	bgeu	a0,a1,80000034 <__text_start+0x34>
    80000028:	00053023          	sd	zero,0(a0)
    8000002c:	00850513          	addi	a0,a0,8
    80000030:	feb56ce3          	bltu	a0,a1,80000028 <__text_start+0x28>
    80000034:	00000417          	auipc	s0,0x0
    80000038:	4fc40413          	addi	s0,s0,1276 # 80000530 <__bss_end>
    8000003c:	00000497          	auipc	s1,0x0
    80000040:	4f448493          	addi	s1,s1,1268 # 80000530 <__bss_end>
    80000044:	00947a63          	bgeu	s0,s1,80000058 <__text_start+0x58>
    80000048:	00043503          	ld	a0,0(s0)
    8000004c:	000500e7          	jalr	a0
    80000050:	00840413          	addi	s0,s0,8
    80000054:	ff1ff06f          	j	80000044 <__text_start+0x44>
    80000058:	06c000ef          	jal	ra,800000c4 <main>

000000008000005c <_halt>:
    8000005c:	0005006b          	0x5006b

0000000080000060 <_dead_loop>:
    80000060:	0000006f          	j	80000060 <_dead_loop>

0000000080000064 <_ZL7put_u64y.part.0>:
    80000064:	fe010113          	addi	sp,sp,-32
    80000068:	00010613          	mv	a2,sp
    8000006c:	00000693          	li	a3,0
    80000070:	00a00593          	li	a1,10
    80000074:	00900893          	li	a7,9
    80000078:	02b577b3          	remu	a5,a0,a1
    8000007c:	00160613          	addi	a2,a2,1
    80000080:	00050813          	mv	a6,a0
    80000084:	00068713          	mv	a4,a3
    80000088:	0016869b          	addiw	a3,a3,1
    8000008c:	03078793          	addi	a5,a5,48
    80000090:	fef60fa3          	sb	a5,-1(a2)
    80000094:	02b55533          	divu	a0,a0,a1
    80000098:	ff08e0e3          	bltu	a7,a6,80000078 <_ZL7put_u64y.part.0+0x14>
    8000009c:	00e10733          	add	a4,sp,a4
    800000a0:	00010693          	mv	a3,sp
    800000a4:	40600637          	lui	a2,0x40600
    800000a8:	00c0006f          	j	800000b4 <_ZL7put_u64y.part.0+0x50>
    800000ac:	fff74783          	lbu	a5,-1(a4)
    800000b0:	fff70713          	addi	a4,a4,-1
    800000b4:	00f60223          	sb	a5,4(a2) # 40600004 <STACK_SIZE+0x405f8004>
    800000b8:	fed71ae3          	bne	a4,a3,800000ac <_ZL7put_u64y.part.0+0x48>
    800000bc:	02010113          	addi	sp,sp,32
    800000c0:	00008067          	ret

00000000800000c4 <main>:
    800000c4:	fd010113          	addi	sp,sp,-48
    800000c8:	02113423          	sd	ra,40(sp)
    800000cc:	02813023          	sd	s0,32(sp)
    800000d0:	00913c23          	sd	s1,24(sp)
    800000d4:	01213823          	sd	s2,16(sp)
    800000d8:	01313423          	sd	s3,8(sp)
    800000dc:	01413023          	sd	s4,0(sp)
    800000e0:	02d00713          	li	a4,45
    800000e4:	00000797          	auipc	a5,0x0
    800000e8:	31478793          	addi	a5,a5,788 # 800003f8 <__text_end>
    800000ec:	406006b7          	lui	a3,0x40600
    800000f0:	00178793          	addi	a5,a5,1
    800000f4:	00e68223          	sb	a4,4(a3) # 40600004 <STACK_SIZE+0x405f8004>
    800000f8:	0007c703          	lbu	a4,0(a5)
    800000fc:	fe071ae3          	bnez	a4,800000f0 <main+0x2c>
    80000100:	200037b7          	lui	a5,0x20003
    80000104:	3ee6af37          	lui	t5,0x3ee6a
    80000108:	0007be83          	ld	t4,0(a5) # 20003000 <STACK_SIZE+0x1fffb000>
    8000010c:	80000837          	lui	a6,0x80000
    80000110:	0001c7b7          	lui	a5,0x1c
    80000114:	00002e37          	lui	t3,0x2
    80000118:	7dcd3337          	lui	t1,0x7dcd3
    8000011c:	89df0f13          	addi	t5,t5,-1891 # 3ee6989d <STACK_SIZE+0x3ee6189d>
    80000120:	47900893          	li	a7,1145
    80000124:	f5278793          	addi	a5,a5,-174 # 1bf52 <STACK_SIZE+0x13f52>
    80000128:	fff84813          	not	a6,a6
    8000012c:	38ee0e13          	addi	t3,t3,910 # 238e <STACK_SIZE-0x5c72>
    80000130:	13a30313          	addi	t1,t1,314 # 7dcd313a <STACK_SIZE+0x7dccb13a>
    80000134:	021f1f13          	slli	t5,t5,0x21
    80000138:	22078463          	beqz	a5,80000360 <main+0x29c>
    8000013c:	00000513          	li	a0,0
    80000140:	00100713          	li	a4,1
    80000144:	00080613          	mv	a2,a6
    80000148:	0080006f          	j	80000150 <main+0x8c>
    8000014c:	00068713          	mv	a4,a3
    80000150:	02f646b3          	div	a3,a2,a5
    80000154:	02f665b3          	rem	a1,a2,a5
    80000158:	00078613          	mv	a2,a5
    8000015c:	02e686b3          	mul	a3,a3,a4
    80000160:	00058793          	mv	a5,a1
    80000164:	40d506b3          	sub	a3,a0,a3
    80000168:	00070513          	mv	a0,a4
    8000016c:	fe0590e3          	bnez	a1,8000014c <main+0x88>
    80000170:	00075463          	bgez	a4,80000178 <main+0xb4>
    80000174:	01070733          	add	a4,a4,a6
    80000178:	03c70733          	mul	a4,a4,t3
    8000017c:	00670733          	add	a4,a4,t1
    80000180:	03076733          	rem	a4,a4,a6
    80000184:	02071413          	slli	s0,a4,0x20
    80000188:	1e071063          	bnez	a4,80000368 <main+0x2a4>
    8000018c:	00030493          	mv	s1,t1
    80000190:	00030793          	mv	a5,t1
    80000194:	fff88893          	addi	a7,a7,-1
    80000198:	fa0890e3          	bnez	a7,80000138 <main+0x74>
    8000019c:	200037b7          	lui	a5,0x20003
    800001a0:	0007b783          	ld	a5,0(a5) # 20003000 <STACK_SIZE+0x1fffb000>
    800001a4:	00000913          	li	s2,0
    800001a8:	41d78a33          	sub	s4,a5,t4
    800001ac:	01d78863          	beq	a5,t4,800001bc <main+0xf8>
    800001b0:	443f5937          	lui	s2,0x443f5
    800001b4:	04090913          	addi	s2,s2,64 # 443f5040 <STACK_SIZE+0x443ed040>
    800001b8:	03495933          	divu	s2,s2,s4
    800001bc:	05300713          	li	a4,83
    800001c0:	00000797          	auipc	a5,0x0
    800001c4:	26078793          	addi	a5,a5,608 # 80000420 <__text_end+0x28>
    800001c8:	406006b7          	lui	a3,0x40600
    800001cc:	00178793          	addi	a5,a5,1
    800001d0:	00e68223          	sb	a4,4(a3) # 40600004 <STACK_SIZE+0x405f8004>
    800001d4:	0007c703          	lbu	a4,0(a5)
    800001d8:	fe071ae3          	bnez	a4,800001cc <main+0x108>
    800001dc:	04900713          	li	a4,73
    800001e0:	00000797          	auipc	a5,0x0
    800001e4:	26078793          	addi	a5,a5,608 # 80000440 <__text_end+0x48>
    800001e8:	406006b7          	lui	a3,0x40600
    800001ec:	00178793          	addi	a5,a5,1
    800001f0:	00e68223          	sb	a4,4(a3) # 40600004 <STACK_SIZE+0x405f8004>
    800001f4:	0007c703          	lbu	a4,0(a5)
    800001f8:	00468993          	addi	s3,a3,4
    800001fc:	fe0718e3          	bnez	a4,800001ec <main+0x128>
    80000200:	47900513          	li	a0,1145
    80000204:	e61ff0ef          	jal	ra,80000064 <_ZL7put_u64y.part.0>
    80000208:	00a00793          	li	a5,10
    8000020c:	00f98023          	sb	a5,0(s3)
    80000210:	04600713          	li	a4,70
    80000214:	00000797          	auipc	a5,0x0
    80000218:	24478793          	addi	a5,a5,580 # 80000458 <__text_end+0x60>
    8000021c:	406006b7          	lui	a3,0x40600
    80000220:	00178793          	addi	a5,a5,1
    80000224:	00e68223          	sb	a4,4(a3) # 40600004 <STACK_SIZE+0x405f8004>
    80000228:	0007c703          	lbu	a4,0(a5)
    8000022c:	fe071ae3          	bnez	a4,80000220 <main+0x15c>
    80000230:	00946433          	or	s0,s0,s1
    80000234:	18040263          	beqz	s0,800003b8 <main+0x2f4>
    80000238:	00040513          	mv	a0,s0
    8000023c:	e29ff0ef          	jal	ra,80000064 <_ZL7put_u64y.part.0>
    80000240:	406007b7          	lui	a5,0x40600
    80000244:	00a00713          	li	a4,10
    80000248:	00e78223          	sb	a4,4(a5) # 40600004 <STACK_SIZE+0x405f8004>
    8000024c:	406006b7          	lui	a3,0x40600
    80000250:	04500713          	li	a4,69
    80000254:	00000797          	auipc	a5,0x0
    80000258:	21c78793          	addi	a5,a5,540 # 80000470 <__text_end+0x78>
    8000025c:	00178793          	addi	a5,a5,1
    80000260:	00e68223          	sb	a4,4(a3) # 40600004 <STACK_SIZE+0x405f8004>
    80000264:	0007c703          	lbu	a4,0(a5)
    80000268:	fe071ae3          	bnez	a4,8000025c <main+0x198>
    8000026c:	00000617          	auipc	a2,0x0
    80000270:	2bc63603          	ld	a2,700(a2) # 80000528 <__text_end+0x130>
    80000274:	02d00713          	li	a4,45
    80000278:	00000797          	auipc	a5,0x0
    8000027c:	23878793          	addi	a5,a5,568 # 800004b0 <__text_end+0xb8>
    80000280:	406006b7          	lui	a3,0x40600
    80000284:	14c40c63          	beq	s0,a2,800003dc <main+0x318>
    80000288:	00178793          	addi	a5,a5,1
    8000028c:	00e68223          	sb	a4,4(a3) # 40600004 <STACK_SIZE+0x405f8004>
    80000290:	0007c703          	lbu	a4,0(a5)
    80000294:	fe071ae3          	bnez	a4,80000288 <main+0x1c4>
    80000298:	05400713          	li	a4,84
    8000029c:	00000797          	auipc	a5,0x0
    800002a0:	22c78793          	addi	a5,a5,556 # 800004c8 <__text_end+0xd0>
    800002a4:	406006b7          	lui	a3,0x40600
    800002a8:	00178793          	addi	a5,a5,1
    800002ac:	00e68223          	sb	a4,4(a3) # 40600004 <STACK_SIZE+0x405f8004>
    800002b0:	0007c703          	lbu	a4,0(a5)
    800002b4:	fe071ae3          	bnez	a4,800002a8 <main+0x1e4>
    800002b8:	100a0c63          	beqz	s4,800003d0 <main+0x30c>
    800002bc:	000a0513          	mv	a0,s4
    800002c0:	da5ff0ef          	jal	ra,80000064 <_ZL7put_u64y.part.0>
    800002c4:	406007b7          	lui	a5,0x40600
    800002c8:	00a00713          	li	a4,10
    800002cc:	00e78223          	sb	a4,4(a5) # 40600004 <STACK_SIZE+0x405f8004>
    800002d0:	406006b7          	lui	a3,0x40600
    800002d4:	05000713          	li	a4,80
    800002d8:	00000797          	auipc	a5,0x0
    800002dc:	20878793          	addi	a5,a5,520 # 800004e0 <__text_end+0xe8>
    800002e0:	00178793          	addi	a5,a5,1
    800002e4:	00e68223          	sb	a4,4(a3) # 40600004 <STACK_SIZE+0x405f8004>
    800002e8:	0007c703          	lbu	a4,0(a5)
    800002ec:	fe071ae3          	bnez	a4,800002e0 <main+0x21c>
    800002f0:	0c090a63          	beqz	s2,800003c4 <main+0x300>
    800002f4:	00090513          	mv	a0,s2
    800002f8:	d6dff0ef          	jal	ra,80000064 <_ZL7put_u64y.part.0>
    800002fc:	02000713          	li	a4,32
    80000300:	00000797          	auipc	a5,0x0
    80000304:	1f878793          	addi	a5,a5,504 # 800004f8 <__text_end+0x100>
    80000308:	406006b7          	lui	a3,0x40600
    8000030c:	00178793          	addi	a5,a5,1
    80000310:	00e68223          	sb	a4,4(a3) # 40600004 <STACK_SIZE+0x405f8004>
    80000314:	0007c703          	lbu	a4,0(a5)
    80000318:	fe071ae3          	bnez	a4,8000030c <main+0x248>
    8000031c:	02d00713          	li	a4,45
    80000320:	00000797          	auipc	a5,0x0
    80000324:	1e078793          	addi	a5,a5,480 # 80000500 <__text_end+0x108>
    80000328:	406006b7          	lui	a3,0x40600
    8000032c:	00178793          	addi	a5,a5,1
    80000330:	00e68223          	sb	a4,4(a3) # 40600004 <STACK_SIZE+0x405f8004>
    80000334:	0007c703          	lbu	a4,0(a5)
    80000338:	fe071ae3          	bnez	a4,8000032c <main+0x268>
    8000033c:	02813083          	ld	ra,40(sp)
    80000340:	02013403          	ld	s0,32(sp)
    80000344:	01813483          	ld	s1,24(sp)
    80000348:	01013903          	ld	s2,16(sp)
    8000034c:	00813983          	ld	s3,8(sp)
    80000350:	00013a03          	ld	s4,0(sp)
    80000354:	00000513          	li	a0,0
    80000358:	03010113          	addi	sp,sp,48
    8000035c:	00008067          	ret
    80000360:	000f0413          	mv	s0,t5
    80000364:	00030713          	mv	a4,t1
    80000368:	00000513          	li	a0,0
    8000036c:	00100793          	li	a5,1
    80000370:	00080613          	mv	a2,a6
    80000374:	0080006f          	j	8000037c <main+0x2b8>
    80000378:	00068793          	mv	a5,a3
    8000037c:	02e646b3          	div	a3,a2,a4
    80000380:	02e665b3          	rem	a1,a2,a4
    80000384:	00070613          	mv	a2,a4
    80000388:	02f686b3          	mul	a3,a3,a5
    8000038c:	00058713          	mv	a4,a1
    80000390:	40d506b3          	sub	a3,a0,a3
    80000394:	00078513          	mv	a0,a5
    80000398:	fe0590e3          	bnez	a1,80000378 <main+0x2b4>
    8000039c:	0007d463          	bgez	a5,800003a4 <main+0x2e0>
    800003a0:	010787b3          	add	a5,a5,a6
    800003a4:	03c787b3          	mul	a5,a5,t3
    800003a8:	006787b3          	add	a5,a5,t1
    800003ac:	0307e7b3          	rem	a5,a5,a6
    800003b0:	00078493          	mv	s1,a5
    800003b4:	de1ff06f          	j	80000194 <main+0xd0>
    800003b8:	03000793          	li	a5,48
    800003bc:	00f68223          	sb	a5,4(a3)
    800003c0:	e81ff06f          	j	80000240 <main+0x17c>
    800003c4:	03000793          	li	a5,48
    800003c8:	00f68223          	sb	a5,4(a3)
    800003cc:	f31ff06f          	j	800002fc <main+0x238>
    800003d0:	03000793          	li	a5,48
    800003d4:	00f68223          	sb	a5,4(a3)
    800003d8:	eedff06f          	j	800002c4 <main+0x200>
    800003dc:	00000797          	auipc	a5,0x0
    800003e0:	0bc78793          	addi	a5,a5,188 # 80000498 <__text_end+0xa0>
    800003e4:	00178793          	addi	a5,a5,1
    800003e8:	00e68223          	sb	a4,4(a3)
    800003ec:	0007c703          	lbu	a4,0(a5)
    800003f0:	fe071ae3          	bnez	a4,800003e4 <main+0x320>
    800003f4:	ea5ff06f          	j	80000298 <main+0x1d4>
